target datalayout = "e-m:e-p270:32:32-p271:32:32-p272:64:64-i64:64-i128:128-f80:128-n8:16:32:64-S128"
target triple = "x86_64-pc-linux-gnu"

; Function Attrs: inlinehint mustprogress nounwind uwtable
define internal noundef signext i8 @_ZL9U_FAILURE10UErrorCode(i32 noundef %0) #4 {
  %2 = alloca i32, align 4
  store i32 %0, ptr %2, align 4, !tbaa !17
  %3 = load i32, ptr %2, align 4, !tbaa !17
  %4 = icmp sgt i32 %3, 0
  %5 = zext i1 %4 to i8
  ret i8 %5
}

; Function Attrs: mustprogress nounwind uwtable
define noundef signext i8 @_ZN6icu_7714HebrewCalendar10isLeapYearEi(i32 noundef %0) #3 align 2 {
  %2 = alloca i32, align 4
  %3 = alloca i64, align 8
  store i32 %0, ptr %2, align 4, !tbaa !15
  call void @llvm.lifetime.start.p0(i64 8, ptr %3) #11
  %4 = load i32, ptr %2, align 4, !tbaa !15
  %5 = sext i32 %4 to i64
  %6 = mul nsw i64 %5, 12
  %7 = add nsw i64 %6, 17
  %8 = srem i64 %7, 19
  store i64 %8, ptr %3, align 8, !tbaa !19
  %9 = load i64, ptr %3, align 8, !tbaa !19
  %10 = load i64, ptr %3, align 8, !tbaa !19
  %11 = icmp slt i64 %10, 0
  %12 = select i1 %11, i32 -7, i32 12
  %13 = sext i32 %12 to i64
  %14 = icmp sge i64 %9, %13
  %15 = zext i1 %14 to i8
  call void @llvm.lifetime.end.p0(i64 8, ptr %3) #11
  ret i8 %15
}

; Function Attrs: mustprogress uwtable
define void @_ZN6icu_7714HebrewCalendar13validateFieldE19UCalendarDateFieldsR10UErrorCode(ptr noundef nonnull align 8 dereferenceable(192) %0, i32 noundef %1, ptr noundef nonnull align 4 dereferenceable(4) %2) unnamed_addr #0 align 2 {
  %4 = alloca ptr, align 8
  %5 = alloca i32, align 4
  %6 = alloca ptr, align 8
  store ptr %0, ptr %4, align 8, !tbaa !3
  store i32 %1, ptr %5, align 4, !tbaa !13
  store ptr %2, ptr %6, align 8, !tbaa !10
  %7 = load ptr, ptr %4, align 8
  %8 = load i32, ptr %5, align 4, !tbaa !13
  %9 = icmp eq i32 %8, 2
  br i1 %9, label %13, label %10

10:                                               ; preds = %3
  %11 = load i32, ptr %5, align 4, !tbaa !13
  %12 = icmp eq i32 %11, 23
  br i1 %12, label %13, label %36

13:                                               ; preds = %10, %3
  %14 = load ptr, ptr %6, align 8, !tbaa !10
  %15 = load ptr, ptr %7, align 8, !tbaa !11
  %16 = getelementptr inbounds ptr, ptr %15, i64 42
  %17 = load ptr, ptr %16, align 8
  %18 = call noundef i32 %17(ptr noundef nonnull align 8 dereferenceable(192) %7, ptr noundef nonnull align 4 dereferenceable(4) %14)
  %19 = call noundef signext i8 @_ZN6icu_7714HebrewCalendar10isLeapYearEi(i32 noundef %18)
  %20 = icmp ne i8 %19, 0
  br i1 %20, label %36, label %21

21:                                               ; preds = %13
  %22 = load ptr, ptr %6, align 8, !tbaa !10
  %23 = load ptr, ptr %7, align 8, !tbaa !11
  %24 = getelementptr inbounds ptr, ptr %23, i64 34
  %25 = load ptr, ptr %24, align 8
  %26 = call noundef i32 %25(ptr noundef nonnull align 8 dereferenceable(192) %7, ptr noundef nonnull align 4 dereferenceable(4) %22)
  %27 = icmp eq i32 %26, 5
  br i1 %27, label %28, label %36

28:                                               ; preds = %21
  %29 = load ptr, ptr %6, align 8, !tbaa !10
  %30 = load i32, ptr %29, align 4, !tbaa !17
  %31 = call noundef signext i8 @_ZL9U_FAILURE10UErrorCode(i32 noundef %30)
  %32 = icmp ne i8 %31, 0
  br i1 %32, label %33, label %34

33:                                               ; preds = %28
  br label %39

34:                                               ; preds = %28
  %35 = load ptr, ptr %6, align 8, !tbaa !10
  store i32 1, ptr %35, align 4, !tbaa !17
  br label %39

36:                                               ; preds = %21, %13, %10
  %37 = load i32, ptr %5, align 4, !tbaa !13
  %38 = load ptr, ptr %6, align 8, !tbaa !10
  call void @_ZN6icu_778Calendar13validateFieldE19UCalendarDateFieldsR10UErrorCode(ptr noundef nonnull align 8 dereferenceable(192) %7, i32 noundef %37, ptr noundef nonnull align 4 dereferenceable(4) %38)
  br label %39

39:                                               ; preds = %36, %34, %33
  ret void
}