; Function Attrs: mustprogress uwtable
define void @_ZN6icu_7714HebrewCalendar13validateFieldE19UCalendarDateFieldsR10UErrorCode(ptr noundef nonnull align 8 dereferenceable(192) %0, i32 noundef %1, ptr noundef nonnull align 4 dereferenceable(4) %2) unnamed_addr #0 align 2 {
  switch i32 %1, label %25 [
    i32 23, label %4
    i32 2, label %4
  ]

4:                                                ; preds = %3, %3
  %5 = load ptr, ptr %0, align 8, !tbaa !3
  %6 = getelementptr inbounds nuw i8, ptr %5, i64 336
  %7 = load ptr, ptr %6, align 8
  %8 = tail call noundef i32 %7(ptr noundef nonnull align 8 dereferenceable(192) %0, ptr noundef nonnull align 4 dereferenceable(4) %2)
  %9 = sext i32 %8 to i64
  %10 = mul nsw i64 %9, 12
  %11 = add nsw i64 %10, 17
  %12 = srem i64 %11, 19
  %13 = icmp slt i64 %12, 0
  %14 = select i1 %13, i64 -7, i64 12
  %.not10 = icmp slt i64 %12, %14
  br i1 %.not10, label %15, label %25

15:                                               ; preds = %4
  %16 = load ptr, ptr %0, align 8, !tbaa !3
  %17 = getelementptr inbounds nuw i8, ptr %16, i64 272
  %18 = load ptr, ptr %17, align 8
  %19 = tail call noundef i32 %18(ptr noundef nonnull align 8 dereferenceable(192) %0, ptr noundef nonnull align 4 dereferenceable(4) %2)
  %20 = icmp eq i32 %19, 5
  br i1 %20, label %21, label %25

21:                                               ; preds = %15
  %22 = load i32, ptr %2, align 4, !tbaa !6
  %23 = icmp slt i32 %22, 1
  br i1 %23, label %24, label %26

24:                                               ; preds = %21
  store i32 1, ptr %2, align 4, !tbaa !6
  br label %26

25:                                               ; preds = %3, %15, %4
  tail call void @_ZN6icu_778Calendar13validateFieldE19UCalendarDateFieldsR10UErrorCode(ptr noundef nonnull align 8 dereferenceable(192) %0, i32 noundef %1, ptr noundef nonnull align 4 dereferenceable(4) %2)
  br label %26

26:                                               ; preds = %21, %25, %24
  ret void
}